target datalayout = "e-m:e-p270:32:32-p271:32:32-p272:64:64-i64:64-i128:128-f80:128-n8:16:32:64-S128"
target triple = "x86_64-pc-linux-gnu"

%struct.archive_write = type { %struct.archive, i32, i64, i64, ptr, i64, ptr, ptr, ptr, ptr, ptr, i32, i32, ptr, ptr, ptr, ptr, ptr, ptr, ptr, ptr, ptr, ptr, ptr, ptr, ptr, ptr }
%struct.archive = type { i32, i32, ptr, i32, ptr, i32, i32, ptr, %struct.archive_string, ptr, i32, i32, ptr, ptr, i64, i64, i64, i8, i64 }
%struct.archive_string = type { ptr, i64, i64 }

@.str.38 = private unnamed_addr constant [32 x i8] c"Invalid value for option ``%s''\00", align 1
@.str.40 = private unnamed_addr constant [39 x i8] c"Invalid value(empty) for option ``%s''\00", align 1
@.str.41 = private unnamed_addr constant [41 x i8] c"Invalid value(over %d) for option ``%s''\00", align 1
@.str.42 = private unnamed_addr constant [42 x i8] c"Invalid value(under %d) for option ``%s''\00", align 1

; Function Attrs: nounwind uwtable
define internal i32 @get_num_opt(ptr noundef %0, ptr noundef %1, i32 noundef %2, i32 noundef %3, ptr noundef %4, ptr noundef %5) #0 {
  %7 = alloca i32, align 4
  %8 = alloca ptr, align 8
  %9 = alloca ptr, align 8
  %10 = alloca i32, align 4
  %11 = alloca i32, align 4
  %12 = alloca ptr, align 8
  %13 = alloca ptr, align 8
  %14 = alloca ptr, align 8
  %15 = alloca i32, align 4
  %16 = alloca i32, align 4
  %17 = alloca i32, align 4
  store ptr %0, ptr %8, align 8, !tbaa !9
  store ptr %1, ptr %9, align 8, !tbaa !180
  store i32 %2, ptr %10, align 4, !tbaa !11
  store i32 %3, ptr %11, align 4, !tbaa !11
  store ptr %4, ptr %12, align 8, !tbaa !133
  store ptr %5, ptr %13, align 8, !tbaa !133
  call void @llvm.lifetime.start.p0(i64 8, ptr %14) #13
  %18 = load ptr, ptr %13, align 8, !tbaa !133
  store ptr %18, ptr %14, align 8, !tbaa !133
  call void @llvm.lifetime.start.p0(i64 4, ptr %15) #13
  store i32 0, ptr %15, align 4, !tbaa !11
  call void @llvm.lifetime.start.p0(i64 4, ptr %16) #13
  store i32 0, ptr %16, align 4, !tbaa !11
  %19 = load ptr, ptr %14, align 8, !tbaa !133
  %20 = icmp eq ptr %19, null
  br i1 %20, label %21, label %25

21:                                               ; preds = %6
  %22 = load ptr, ptr %8, align 8, !tbaa !9
  %23 = getelementptr inbounds nuw %struct.archive_write, ptr %22, i32 0, i32 0
  %24 = load ptr, ptr %12, align 8, !tbaa !133
  call void (ptr, i32, ptr, ...) @archive_set_error(ptr noundef %23, i32 noundef -1, ptr noundef @.str.40, ptr noundef %24)
  store i32 -30, ptr %7, align 4
  store i32 1, ptr %17, align 4
  br label %90

25:                                               ; preds = %6
  %26 = load ptr, ptr %14, align 8, !tbaa !133
  %27 = load i8, ptr %26, align 1, !tbaa !117
  %28 = sext i8 %27 to i32
  %29 = icmp eq i32 %28, 45
  br i1 %29, label %30, label %33

30:                                               ; preds = %25
  store i32 1, ptr %16, align 4, !tbaa !11
  %31 = load ptr, ptr %14, align 8, !tbaa !133
  %32 = getelementptr inbounds nuw i8, ptr %31, i32 1
  store ptr %32, ptr %14, align 8, !tbaa !133
  br label %33

33:                                               ; preds = %30, %25
  br label %34

34:                                               ; preds = %78, %33
  %35 = load ptr, ptr %14, align 8, !tbaa !133
  %36 = load i8, ptr %35, align 1, !tbaa !117
  %37 = icmp ne i8 %36, 0
  br i1 %37, label %38, label %81

38:                                               ; preds = %34
  %39 = load ptr, ptr %14, align 8, !tbaa !133
  %40 = load i8, ptr %39, align 1, !tbaa !117
  %41 = sext i8 %40 to i32
  %42 = icmp sge i32 %41, 48
  br i1 %42, label %43, label %56

43:                                               ; preds = %38
  %44 = load ptr, ptr %14, align 8, !tbaa !133
  %45 = load i8, ptr %44, align 1, !tbaa !117
  %46 = sext i8 %45 to i32
  %47 = icmp sle i32 %46, 57
  br i1 %47, label %48, label %56

48:                                               ; preds = %43
  %49 = load i32, ptr %15, align 4, !tbaa !11
  %50 = mul nsw i32 %49, 10
  %51 = load ptr, ptr %14, align 8, !tbaa !133
  %52 = load i8, ptr %51, align 1, !tbaa !117
  %53 = sext i8 %52 to i32
  %54 = add nsw i32 %50, %53
  %55 = sub nsw i32 %54, 48
  store i32 %55, ptr %15, align 4, !tbaa !11
  br label %60

56:                                               ; preds = %43, %38
  %57 = load ptr, ptr %8, align 8, !tbaa !9
  %58 = getelementptr inbounds nuw %struct.archive_write, ptr %57, i32 0, i32 0
  %59 = load ptr, ptr %12, align 8, !tbaa !133
  call void (ptr, i32, ptr, ...) @archive_set_error(ptr noundef %58, i32 noundef -1, ptr noundef @.str.38, ptr noundef %59)
  store i32 -30, ptr %7, align 4
  store i32 1, ptr %17, align 4
  br label %90

60:                                               ; preds = %48
  %61 = load i32, ptr %15, align 4, !tbaa !11
  %62 = load i32, ptr %10, align 4, !tbaa !11
  %63 = icmp sgt i32 %61, %62
  br i1 %63, label %64, label %69

64:                                               ; preds = %60
  %65 = load ptr, ptr %8, align 8, !tbaa !9
  %66 = getelementptr inbounds nuw %struct.archive_write, ptr %65, i32 0, i32 0
  %67 = load i32, ptr %10, align 4, !tbaa !11
  %68 = load ptr, ptr %12, align 8, !tbaa !133
  call void (ptr, i32, ptr, ...) @archive_set_error(ptr noundef %66, i32 noundef -1, ptr noundef @.str.41, i32 noundef %67, ptr noundef %68)
  store i32 -30, ptr %7, align 4
  store i32 1, ptr %17, align 4
  br label %90

69:                                               ; preds = %60
  %70 = load i32, ptr %15, align 4, !tbaa !11
  %71 = load i32, ptr %11, align 4, !tbaa !11
  %72 = icmp slt i32 %70, %71
  br i1 %72, label %73, label %78

73:                                               ; preds = %69
  %74 = load ptr, ptr %8, align 8, !tbaa !9
  %75 = getelementptr inbounds nuw %struct.archive_write, ptr %74, i32 0, i32 0
  %76 = load i32, ptr %11, align 4, !tbaa !11
  %77 = load ptr, ptr %12, align 8, !tbaa !133
  call void (ptr, i32, ptr, ...) @archive_set_error(ptr noundef %75, i32 noundef -1, ptr noundef @.str.42, i32 noundef %76, ptr noundef %77)
  store i32 -30, ptr %7, align 4
  store i32 1, ptr %17, align 4
  br label %90

78:                                               ; preds = %69
  %79 = load ptr, ptr %14, align 8, !tbaa !133
  %80 = getelementptr inbounds nuw i8, ptr %79, i32 1
  store ptr %80, ptr %14, align 8, !tbaa !133
  br label %34, !llvm.loop !181

81:                                               ; preds = %34
  %82 = load i32, ptr %16, align 4, !tbaa !11
  %83 = icmp ne i32 %82, 0
  br i1 %83, label %84, label %87

84:                                               ; preds = %81
  %85 = load i32, ptr %15, align 4, !tbaa !11
  %86 = mul nsw i32 %85, -1
  store i32 %86, ptr %15, align 4, !tbaa !11
  br label %87

87:                                               ; preds = %84, %81
  %88 = load i32, ptr %15, align 4, !tbaa !11
  %89 = load ptr, ptr %9, align 8, !tbaa !180
  store i32 %88, ptr %89, align 4, !tbaa !11
  store i32 0, ptr %7, align 4
  store i32 1, ptr %17, align 4
  br label %90

90:                                               ; preds = %87, %73, %64, %56, %21
  call void @llvm.lifetime.end.p0(i64 4, ptr %16) #13
  call void @llvm.lifetime.end.p0(i64 4, ptr %15) #13
  call void @llvm.lifetime.end.p0(i64 8, ptr %14) #13
  %91 = load i32, ptr %7, align 4
  ret i32 %91
}