; Function Attrs: nounwind uwtable
define internal fastcc range(i32 -30, 1) i32 @get_num_opt(ptr noundef %0, ptr noundef nonnull writeonly captures(none) %1, ptr noundef %2, ptr noundef readonly %3) unnamed_addr #0 {
  %5 = icmp eq ptr %3, null
  br i1 %5, label %6, label %7

6:                                                ; preds = %4
  tail call void (ptr, i32, ptr, ...) @archive_set_error(ptr noundef %0, i32 noundef -1, ptr noundef nonnull @.str.40, ptr noundef %2) #23
  br label %27

7:                                                ; preds = %4
  %8 = load i8, ptr %3, align 1, !tbaa !68
  %.not39 = icmp eq i8 %8, 45
  %spec.select.idx = zext i1 %.not39 to i64
  %spec.select = getelementptr inbounds nuw i8, ptr %3, i64 %spec.select.idx
  %9 = load i8, ptr %spec.select, align 1, !tbaa !68
  %.not44 = icmp eq i8 %9, 0
  br i1 %.not44, label %._crit_edge, label %.lr.ph

10:                                               ; preds = %23
  %11 = add nsw i32 %19, -48
  %12 = getelementptr inbounds nuw i8, ptr %.13045, i64 1
  %13 = load i8, ptr %12, align 1, !tbaa !68
  %.not = icmp eq i8 %13, 0
  br i1 %.not, label %._crit_edge, label %.lr.ph, !llvm.loop !223

.lr.ph:                                           ; preds = %7, %10
  %14 = phi i8 [ %13, %10 ], [ %9, %7 ]
  %.02846 = phi i32 [ %11, %10 ], [ 0, %7 ]
  %.13045 = phi ptr [ %12, %10 ], [ %spec.select, %7 ]
  %15 = add i8 %14, -48
  %or.cond = icmp ult i8 %15, 10
  br i1 %or.cond, label %16, label %21

16:                                               ; preds = %.lr.ph
  %17 = zext nneg i8 %14 to i32
  %18 = mul nuw nsw i32 %.02846, 10
  %19 = add nuw nsw i32 %18, %17
  %20 = icmp samesign ugt i32 %19, 65583
  br i1 %20, label %22, label %23

21:                                               ; preds = %.lr.ph
  tail call void (ptr, i32, ptr, ...) @archive_set_error(ptr noundef %0, i32 noundef -1, ptr noundef nonnull @.str.38, ptr noundef %2) #23
  br label %27

22:                                               ; preds = %16
  tail call void (ptr, i32, ptr, ...) @archive_set_error(ptr noundef %0, i32 noundef -1, ptr noundef nonnull @.str.41, i32 noundef 65535, ptr noundef %2) #23
  br label %27

23:                                               ; preds = %16
  %24 = icmp samesign ult i32 %19, 49
  br i1 %24, label %25, label %10

25:                                               ; preds = %23
  tail call void (ptr, i32, ptr, ...) @archive_set_error(ptr noundef %0, i32 noundef -1, ptr noundef nonnull @.str.42, i32 noundef 1, ptr noundef %2) #23
  br label %27

._crit_edge:                                      ; preds = %10, %7
  %.028.lcssa = phi i32 [ 0, %7 ], [ %11, %10 ]
  %26 = sub nsw i32 0, %.028.lcssa
  %spec.select40 = select i1 %.not39, i32 %26, i32 %.028.lcssa
  store i32 %spec.select40, ptr %1, align 4, !tbaa !101
  br label %27

27:                                               ; preds = %._crit_edge, %25, %22, %21, %6
  %.031 = phi i32 [ -30, %6 ], [ -30, %22 ], [ -30, %25 ], [ -30, %21 ], [ 0, %._crit_edge ]
  ret i32 %.031
}